; Function Attrs: mustprogress uwtable
define void @_ZN6casadi10DaeBuilder12add_variableERKNSt7__cxx1112basic_stringIcSt11char_traitsIcESaIcEEEx(ptr dead_on_unwind noalias writable sret(%"class.casadi::MX") align 8 %0, ptr noundef nonnull align 8 dereferenceable(8) %1, ptr noundef nonnull align 8 dereferenceable(32) %2, i64 noundef %3) local_unnamed_addr #4 align 2 personality ptr @__gxx_personality_v0 {
  %5 = alloca %"class.casadi::MX", align 8
  %6 = alloca %"class.casadi::Sparsity", align 8
  call void @llvm.lifetime.start.p0(i64 8, ptr nonnull %6) #28
  call void @_ZN6casadi8Sparsity5denseExx(ptr dead_on_unwind nonnull writable sret(%"class.casadi::Sparsity") align 8 %6, i64 noundef %3, i64 noundef 1)
  call void @llvm.experimental.noalias.scope.decl(metadata !107)
  %7 = invoke noundef nonnull align 8 dereferenceable(408) ptr @_ZN6casadi10DaeBuilder12new_variableERKNSt7__cxx1112basic_stringIcSt11char_traitsIcESaIcEEEx(ptr noundef nonnull align 8 dereferenceable(8) %1, ptr noundef nonnull align 8 dereferenceable(32) %2, i64 noundef 1)
          to label %.noexc unwind label %16

.noexc:                                           ; preds = %4
  call void @llvm.lifetime.start.p0(i64 8, ptr nonnull %5) #28, !noalias !107
  invoke void @_ZN6casadi2MX4_symERKNSt7__cxx1112basic_stringIcSt11char_traitsIcESaIcEEERKNS_8SparsityE(ptr dead_on_unwind nonnull writable sret(%"class.casadi::MX") align 8 %5, ptr noundef nonnull align 8 dereferenceable(32) %2, ptr noundef nonnull align 8 dereferenceable(8) %6)
          to label %.noexc4 unwind label %16

.noexc4:                                          ; preds = %.noexc
  %8 = getelementptr inbounds nuw i8, ptr %7, i64 384
  %9 = invoke noundef nonnull align 8 dereferenceable(8) ptr @_ZN6casadi13GenericSharedINS_12SharedObjectENS_20SharedObjectInternalEEaSERKS3_(ptr noundef nonnull align 8 dereferenceable(8) %8, ptr noundef nonnull align 8 dereferenceable(8) %5)
          to label %_ZN6casadi2MXaSERKS0_.exit.i unwind label %11, !noalias !107

_ZN6casadi2MXaSERKS0_.exit.i:                     ; preds = %.noexc4
  call void @_ZN6casadi2MXD1Ev(ptr noundef nonnull align 8 dereferenceable(8) %5) #28, !noalias !107
  call void @llvm.lifetime.end.p0(i64 8, ptr nonnull %5) #28, !noalias !107
  %10 = load ptr, ptr %8, align 8, !tbaa !22, !noalias !107
  store ptr %10, ptr %0, align 8, !tbaa !22, !alias.scope !107
  invoke void @_ZN6casadi13GenericSharedINS_12SharedObjectENS_20SharedObjectInternalEE8count_upEv(ptr noundef nonnull align 8 dereferenceable(8) %0)
          to label %_ZN6casadi10DaeBuilder12add_variableERKNSt7__cxx1112basic_stringIcSt11char_traitsIcESaIcEEERKNS_8SparsityE.exit unwind label %16

11:                                               ; preds = %.noexc4
  %12 = landingpad { ptr, i32 }
          cleanup
  call void @_ZN6casadi2MXD1Ev(ptr noundef nonnull align 8 dereferenceable(8) %5) #28, !noalias !107
  call void @llvm.lifetime.end.p0(i64 8, ptr nonnull %5) #28, !noalias !107
  br label %.body

_ZN6casadi10DaeBuilder12add_variableERKNSt7__cxx1112basic_stringIcSt11char_traitsIcESaIcEEERKNS_8SparsityE.exit: ; preds = %_ZN6casadi2MXaSERKS0_.exit.i
  invoke void @_ZN6casadi13GenericSharedINS_12SharedObjectENS_20SharedObjectInternalEE10count_downEv(ptr noundef nonnull align 8 dereferenceable(8) %6)
          to label %_ZN6casadi13GenericSharedINS_12SharedObjectENS_20SharedObjectInternalEED2Ev.exit unwind label %13

13:                                               ; preds = %_ZN6casadi10DaeBuilder12add_variableERKNSt7__cxx1112basic_stringIcSt11char_traitsIcESaIcEEERKNS_8SparsityE.exit
  %14 = landingpad { ptr, i32 }
          catch ptr null
  %15 = extractvalue { ptr, i32 } %14, 0
  call void @__clang_call_terminate(ptr %15) #31
  unreachable

_ZN6casadi13GenericSharedINS_12SharedObjectENS_20SharedObjectInternalEED2Ev.exit: ; preds = %_ZN6casadi10DaeBuilder12add_variableERKNSt7__cxx1112basic_stringIcSt11char_traitsIcESaIcEEERKNS_8SparsityE.exit
  call void @llvm.lifetime.end.p0(i64 8, ptr nonnull %6) #28
  ret void

16:                                               ; preds = %_ZN6casadi2MXaSERKS0_.exit.i, %.noexc, %4
  %17 = landingpad { ptr, i32 }
          cleanup
  br label %.body

.body:                                            ; preds = %11, %16
  %eh.lpad-body = phi { ptr, i32 } [ %17, %16 ], [ %12, %11 ]
  invoke void @_ZN6casadi13GenericSharedINS_12SharedObjectENS_20SharedObjectInternalEE10count_downEv(ptr noundef nonnull align 8 dereferenceable(8) %6)
          to label %_ZN6casadi13GenericSharedINS_12SharedObjectENS_20SharedObjectInternalEED2Ev.exit6 unwind label %18

18:                                               ; preds = %.body
  %19 = landingpad { ptr, i32 }
          catch ptr null
  %20 = extractvalue { ptr, i32 } %19, 0
  call void @__clang_call_terminate(ptr %20) #31
  unreachable

_ZN6casadi13GenericSharedINS_12SharedObjectENS_20SharedObjectInternalEED2Ev.exit6: ; preds = %.body
  call void @llvm.lifetime.end.p0(i64 8, ptr nonnull %6) #28
  resume { ptr, i32 } %eh.lpad-body
}